; Function Attrs: null_pointer_is_valid sspstrong uwtable
define internal range(i32 -268435456, 268435456) i32 @dissect_MME_UE_S1AP_ID_PDU(ptr noundef %0, ptr noundef %1, ptr noundef %2, ptr readnone captures(none) %3) #0 {
  %5 = alloca i32, align 4
  %6 = alloca %struct._asn1_ctx_t, align 8
  call void @llvm.lifetime.start.p0(i64 208, ptr nonnull %6) #8
  call void @asn1_ctx_init(ptr noundef nonnull %6, i32 noundef 1, i1 noundef zeroext true, ptr noundef %1)
  %7 = load i32, ptr @hf_s1ap_MME_UE_S1AP_ID_PDU, align 4
  call void @llvm.lifetime.start.p0(i64 4, ptr nonnull %5) #8
  %8 = call i32 @dissect_per_constrained_integer(ptr noundef %0, i32 noundef 0, ptr noundef nonnull %6, ptr noundef %2, i32 noundef %7, i32 noundef 0, i32 noundef -1, ptr noundef nonnull %5, i1 noundef zeroext false)
  %9 = load i32, ptr @hf_s1ap_mME_UE_S1AP_ID, align 4
  %10 = icmp eq i32 %7, %9
  br i1 %10, label %11, label %dissect_s1ap_MME_UE_S1AP_ID.exit

11:                                               ; preds = %4
  %12 = load i32, ptr @hf_s1ap_MME_UE_S1AP_ID_PDU, align 4
  %13 = load i32, ptr %5, align 4
  %14 = call ptr @proto_tree_add_uint(ptr noundef %2, i32 noundef %12, ptr noundef %0, i32 noundef %8, i32 noundef 0, i32 noundef %13)
  %.not.i.i = icmp eq ptr %14, null
  br i1 %.not.i.i, label %dissect_s1ap_MME_UE_S1AP_ID.exit, label %15

15:                                               ; preds = %11
  %16 = getelementptr inbounds nuw i8, ptr %14, i64 40
  %17 = load ptr, ptr %16, align 8
  %.not5.i.i = icmp eq ptr %17, null
  br i1 %.not5.i.i, label %dissect_s1ap_MME_UE_S1AP_ID.exit, label %18

18:                                               ; preds = %15
  %19 = getelementptr inbounds nuw i8, ptr %17, i64 28
  %20 = load i32, ptr %19, align 4
  %21 = or i32 %20, 1
  store i32 %21, ptr %19, align 4
  br label %dissect_s1ap_MME_UE_S1AP_ID.exit

dissect_s1ap_MME_UE_S1AP_ID.exit:                 ; preds = %4, %11, %15, %18
  call void @llvm.lifetime.end.p0(i64 4, ptr nonnull %5) #8
  %22 = add i32 %8, 7
  %23 = ashr i32 %22, 3
  call void @llvm.lifetime.end.p0(i64 208, ptr nonnull %6) #8
  ret i32 %23
}